target datalayout = "e-m:e-p270:32:32-p271:32:32-p272:64:64-i64:64-i128:128-f80:128-n8:16:32:64-S128"
target triple = "x86_64-pc-linux-gnu"

; Function Attrs: mustprogress nounwind uwtable
define hidden noundef zeroext i1 @_ZN12smt_renaming10is_specialEPKc(ptr noundef nonnull align 8 dereferenceable(48) %0, ptr noundef %1) #6 align 2 {
  %3 = alloca i1, align 1
  %4 = alloca ptr, align 8
  %5 = alloca ptr, align 8
  store ptr %0, ptr %4, align 8, !tbaa !3
  store ptr %1, ptr %5, align 8, !tbaa !10
  %6 = load ptr, ptr %5, align 8, !tbaa !10
  %7 = icmp ne ptr %6, null
  br i1 %7, label %9, label %8

8:                                                ; preds = %2
  store i1 false, ptr %3, align 1
  br label %39

9:                                                ; preds = %2
  %10 = load ptr, ptr %5, align 8, !tbaa !10
  %11 = getelementptr inbounds i8, ptr %10, i64 0
  %12 = load i8, ptr %11, align 1, !tbaa !12
  %13 = sext i8 %12 to i32
  %14 = icmp ne i32 %13, 124
  br i1 %14, label %15, label %16

15:                                               ; preds = %9
  store i1 false, ptr %3, align 1
  br label %39

16:                                               ; preds = %9
  %17 = load ptr, ptr %5, align 8, !tbaa !10
  %18 = getelementptr inbounds nuw i8, ptr %17, i32 1
  store ptr %18, ptr %5, align 8, !tbaa !10
  br label %19

19:                                               ; preds = %35, %16
  %20 = load ptr, ptr %5, align 8, !tbaa !10
  %21 = load i8, ptr %20, align 1, !tbaa !12
  %22 = icmp ne i8 %21, 0
  br i1 %22, label %23, label %38

23:                                               ; preds = %19
  %24 = load ptr, ptr %5, align 8, !tbaa !10
  %25 = getelementptr inbounds i8, ptr %24, i64 0
  %26 = load i8, ptr %25, align 1, !tbaa !12
  %27 = sext i8 %26 to i32
  %28 = icmp eq i32 %27, 124
  br i1 %28, label %29, label %35

29:                                               ; preds = %23
  %30 = load ptr, ptr %5, align 8, !tbaa !10
  %31 = getelementptr inbounds i8, ptr %30, i64 1
  %32 = load i8, ptr %31, align 1, !tbaa !12
  %33 = sext i8 %32 to i32
  %34 = icmp eq i32 0, %33
  store i1 %34, ptr %3, align 1
  br label %39

35:                                               ; preds = %23
  %36 = load ptr, ptr %5, align 8, !tbaa !10
  %37 = getelementptr inbounds nuw i8, ptr %36, i32 1
  store ptr %37, ptr %5, align 8, !tbaa !10
  br label %19, !llvm.loop !22

38:                                               ; preds = %19
  store i1 false, ptr %3, align 1
  br label %39

39:                                               ; preds = %38, %29, %15, %8
  %40 = load i1, ptr %3, align 1
  ret i1 %40
}