; Function Attrs: mustprogress nofree norecurse nosync nounwind willreturn memory(argmem: read) uwtable
define hidden noundef zeroext i1 @_ZN12smt_renaming10is_specialEPKc(ptr noundef nonnull readnone align 8 captures(none) dereferenceable(48) %0, ptr noundef readonly captures(address_is_null) %1) local_unnamed_addr #6 align 2 {
  %.not = icmp eq ptr %1, null
  br i1 %.not, label %.loopexit, label %3

3:                                                ; preds = %2
  %4 = load i8, ptr %1, align 1, !tbaa !3
  %.not11 = icmp eq i8 %4, 124
  br i1 %.not11, label %.preheader, label %.loopexit

.preheader:                                       ; preds = %3, %.preheader
  %.pn = phi ptr [ %.0, %.preheader ], [ %1, %3 ]
  %.0 = getelementptr inbounds nuw i8, ptr %.pn, i64 1
  %5 = load i8, ptr %.0, align 1, !tbaa !3
  switch i8 %5, label %.preheader [
    i8 0, label %.loopexit
    i8 124, label %6
  ], !llvm.loop !9

6:                                                ; preds = %.preheader
  %7 = getelementptr inbounds nuw i8, ptr %.pn, i64 2
  %8 = load i8, ptr %7, align 1, !tbaa !3
  %9 = icmp eq i8 %8, 0
  br label %.loopexit

.loopexit:                                        ; preds = %.preheader, %3, %2, %6
  %.08 = phi i1 [ %9, %6 ], [ false, %2 ], [ false, %3 ], [ false, %.preheader ]
  ret i1 %.08
}